target datalayout = "e-m:e-p270:32:32-p271:32:32-p272:64:64-i64:64-i128:128-f80:128-n8:16:32:64-S128"
target triple = "x86_64-pc-linux-gnu"

%struct.Wlc_Ntk_t_ = type { ptr, ptr, %struct.Vec_Int_t_, %struct.Vec_Int_t_, %struct.Vec_Int_t_, %struct.Vec_Int_t_, %struct.Vec_Int_t_, %struct.Vec_Int_t_, ptr, ptr, ptr, [60 x i32], [60 x i32], i32, i32, i32, i32, i32, ptr, i32, i32, ptr, ptr, ptr, ptr, ptr, %struct.Vec_Int_t_, %struct.Vec_Int_t_, i32, %struct.Vec_Int_t_, %struct.Vec_Int_t_, %struct.Vec_Int_t_, %struct.Vec_Int_t_, %struct.Vec_Int_t_, %struct.Vec_Int_t_ }
%struct.Vec_Int_t_ = type { i32, i32, ptr }
%struct.Wlc_Obj_t_ = type { i16, i32, i32, i32, %union.anon }
%union.anon = type { [1 x ptr] }

; Function Attrs: nounwind uwtable
define internal i32 @Vec_IntSize(ptr noundef %0) #0 {
  %2 = alloca ptr, align 8
  store ptr %0, ptr %2, align 8
  %3 = load ptr, ptr %2, align 8
  %4 = getelementptr inbounds %struct.Vec_Int_t_, ptr %3, i32 0, i32 1
  %5 = load i32, ptr %4, align 4
  ret i32 %5
}

; Function Attrs: nounwind uwtable
define void @Wlc_NtkCleanMarks(ptr noundef %0) #0 {
  %2 = alloca ptr, align 8
  %3 = alloca ptr, align 8
  %4 = alloca i32, align 4
  store ptr %0, ptr %2, align 8
  store i32 1, ptr %4, align 4
  br label %5

5:                                                ; preds = %21, %1
  %6 = load i32, ptr %4, align 4
  %7 = load ptr, ptr %2, align 8
  %8 = call i32 @Wlc_NtkObjNumMax(ptr noundef %7)
  %9 = icmp slt i32 %6, %8
  br i1 %9, label %10, label %14

10:                                               ; preds = %5
  %11 = load ptr, ptr %2, align 8
  %12 = load i32, ptr %4, align 4
  %13 = call ptr @Wlc_NtkObj(ptr noundef %11, i32 noundef %12)
  store ptr %13, ptr %3, align 8
  br label %14

14:                                               ; preds = %10, %5
  %15 = phi i1 [ false, %5 ], [ true, %10 ]
  br i1 %15, label %16, label %24

16:                                               ; preds = %14
  %17 = load ptr, ptr %3, align 8
  %18 = load i16, ptr %17, align 8
  %19 = and i16 %18, -129
  %20 = or i16 %19, 0
  store i16 %20, ptr %17, align 8
  br label %21

21:                                               ; preds = %16
  %22 = load i32, ptr %4, align 4
  %23 = add nsw i32 %22, 1
  store i32 %23, ptr %4, align 4
  br label %5, !llvm.loop !29

24:                                               ; preds = %14
  ret void
}

; Function Attrs: nounwind uwtable
define internal ptr @Wlc_NtkObj(ptr noundef %0, i32 noundef %1) #0 {
  %3 = alloca ptr, align 8
  %4 = alloca i32, align 4
  store ptr %0, ptr %3, align 8
  store i32 %1, ptr %4, align 4
  %5 = load ptr, ptr %3, align 8
  %6 = getelementptr inbounds %struct.Wlc_Ntk_t_, ptr %5, i32 0, i32 18
  %7 = load ptr, ptr %6, align 8
  %8 = load i32, ptr %4, align 4
  %9 = sext i32 %8 to i64
  %10 = getelementptr inbounds %struct.Wlc_Obj_t_, ptr %7, i64 %9
  ret ptr %10
}

; Function Attrs: nounwind uwtable
define internal i32 @Wlc_NtkObjNumMax(ptr noundef %0) #0 {
  %2 = alloca ptr, align 8
  store ptr %0, ptr %2, align 8
  %3 = load ptr, ptr %2, align 8
  %4 = getelementptr inbounds %struct.Wlc_Ntk_t_, ptr %3, i32 0, i32 19
  %5 = load i32, ptr %4, align 8
  ret i32 %5
}

; Function Attrs: nounwind uwtable
define internal i32 @Wlc_NtkPoNum(ptr noundef %0) #0 {
  %2 = alloca ptr, align 8
  store ptr %0, ptr %2, align 8
  %3 = load ptr, ptr %2, align 8
  %4 = getelementptr inbounds %struct.Wlc_Ntk_t_, ptr %3, i32 0, i32 3
  %5 = call i32 @Vec_IntSize(ptr noundef %4)
  ret i32 %5
}

; Function Attrs: nounwind uwtable
define void @Wlc_NtkCollectStats(ptr noundef %0, ptr noundef %1) #0 {
  %3 = alloca ptr, align 8
  %4 = alloca ptr, align 8
  %5 = alloca ptr, align 8
  %6 = alloca i32, align 4
  %7 = alloca i32, align 4
  store ptr %0, ptr %3, align 8
  store ptr %1, ptr %4, align 8
  %8 = load ptr, ptr %3, align 8
  %9 = call i32 @Wlc_NtkPoNum(ptr noundef %8)
  %10 = icmp ne i32 %9, 2
  br i1 %10, label %11, label %12

11:                                               ; preds = %2
  br label %60

12:                                               ; preds = %2
  store i32 0, ptr %6, align 4
  br label %13

13:                                               ; preds = %55, %12
  %14 = load i32, ptr %6, align 4
  %15 = icmp slt i32 %14, 2
  br i1 %15, label %16, label %58

16:                                               ; preds = %13
  %17 = load ptr, ptr %3, align 8
  %18 = load i32, ptr %6, align 4
  call void @Wlc_NtkMarkCone(ptr noundef %17, i32 noundef %18, i32 noundef 1, i32 noundef 1, i32 noundef 0)
  store i32 1, ptr %7, align 4
  br label %19

19:                                               ; preds = %51, %16
  %20 = load i32, ptr %7, align 4
  %21 = load ptr, ptr %3, align 8
  %22 = call i32 @Wlc_NtkObjNumMax(ptr noundef %21)
  %23 = icmp slt i32 %20, %22
  br i1 %23, label %24, label %28

24:                                               ; preds = %19
  %25 = load ptr, ptr %3, align 8
  %26 = load i32, ptr %7, align 4
  %27 = call ptr @Wlc_NtkObj(ptr noundef %25, i32 noundef %26)
  store ptr %27, ptr %5, align 8
  br label %28

28:                                               ; preds = %24, %19
  %29 = phi i1 [ false, %19 ], [ true, %24 ]
  br i1 %29, label %30, label %54

30:                                               ; preds = %28
  %31 = load ptr, ptr %5, align 8
  %32 = load i16, ptr %31, align 8
  %33 = lshr i16 %32, 7
  %34 = and i16 %33, 1
  %35 = zext i16 %34 to i32
  %36 = icmp ne i32 %35, 0
  br i1 %36, label %37, label %50

37:                                               ; preds = %30
  %38 = load ptr, ptr %4, align 8
  %39 = load i32, ptr %6, align 4
  %40 = sext i32 %39 to i64
  %41 = getelementptr inbounds [60 x i32], ptr %38, i64 %40
  %42 = load ptr, ptr %5, align 8
  %43 = load i16, ptr %42, align 8
  %44 = and i16 %43, 63
  %45 = zext i16 %44 to i32
  %46 = zext i32 %45 to i64
  %47 = getelementptr inbounds [60 x i32], ptr %41, i64 0, i64 %46
  %48 = load i32, ptr %47, align 4
  %49 = add nsw i32 %48, 1
  store i32 %49, ptr %47, align 4
  br label %50

50:                                               ; preds = %37, %30
  br label %51

51:                                               ; preds = %50
  %52 = load i32, ptr %7, align 4
  %53 = add nsw i32 %52, 1
  store i32 %53, ptr %7, align 4
  br label %19, !llvm.loop !24

54:                                               ; preds = %28
  br label %55

55:                                               ; preds = %54
  %56 = load i32, ptr %6, align 4
  %57 = add nsw i32 %56, 1
  store i32 %57, ptr %6, align 4
  br label %13, !llvm.loop !25

58:                                               ; preds = %13
  %59 = load ptr, ptr %3, align 8
  call void @Wlc_NtkCleanMarks(ptr noundef %59)
  br label %60

60:                                               ; preds = %58, %11
  ret void
}