; Function Attrs: nounwind uwtable
define void @Wlc_NtkCollectStats(ptr noundef readonly captures(none) %0, ptr noundef captures(none) %1) local_unnamed_addr #3 {
  %3 = getelementptr i8, ptr %0, i64 36
  %.val17 = load i32, ptr %3, align 4
  %.not = icmp eq i32 %.val17, 2
  br i1 %.not, label %.preheader, label %Wlc_NtkCleanMarks.exit

.preheader:                                       ; preds = %2
  %4 = getelementptr i8, ptr %0, i64 648
  %5 = getelementptr i8, ptr %0, i64 640
  br label %.backedge

.backedge:                                        ; preds = %.backedge.backedge, %.preheader
  %6 = phi i1 [ true, %.preheader ], [ false, %.backedge.backedge ]
  %indvars.iv22 = phi i64 [ 0, %.preheader ], [ 1, %.backedge.backedge ]
  %7 = trunc nuw nsw i64 %indvars.iv22 to i32
  tail call void @Wlc_NtkMarkCone(ptr noundef nonnull %0, i32 noundef %7, i32 noundef 1, i32 noundef 1, i32 noundef 0)
  %.val1618 = load i32, ptr %4, align 8
  %8 = icmp sgt i32 %.val1618, 1
  br i1 %8, label %.lr.ph, label %.critedge.thread

.lr.ph:                                           ; preds = %.backedge, %18
  %.val1625 = phi i32 [ %.val16, %18 ], [ %.val1618, %.backedge ]
  %indvars.iv = phi i64 [ %indvars.iv.next, %18 ], [ 1, %.backedge ]
  %.val = load ptr, ptr %5, align 8
  %9 = getelementptr inbounds nuw %struct.Wlc_Obj_t_, ptr %.val, i64 %indvars.iv
  %10 = load i16, ptr %9, align 8
  %11 = and i16 %10, 128
  %.not15 = icmp eq i16 %11, 0
  br i1 %.not15, label %18, label %12

12:                                               ; preds = %.lr.ph
  %13 = and i16 %10, 63
  %14 = zext nneg i16 %13 to i64
  %15 = getelementptr inbounds nuw [60 x i32], ptr %1, i64 %indvars.iv22, i64 %14
  %16 = load i32, ptr %15, align 4
  %17 = add nsw i32 %16, 1
  store i32 %17, ptr %15, align 4
  %.val16.pre = load i32, ptr %4, align 8
  br label %18

18:                                               ; preds = %.lr.ph, %12
  %.val16 = phi i32 [ %.val1625, %.lr.ph ], [ %.val16.pre, %12 ]
  %indvars.iv.next = add nuw nsw i64 %indvars.iv, 1
  %19 = sext i32 %.val16 to i64
  %20 = icmp slt i64 %indvars.iv.next, %19
  br i1 %20, label %.lr.ph, label %.critedge, !llvm.loop !24

.critedge:                                        ; preds = %18
  br i1 %6, label %.backedge.backedge, label %21

.backedge.backedge:                               ; preds = %.critedge, %.critedge.thread
  br label %.backedge, !llvm.loop !25

.critedge.thread:                                 ; preds = %.backedge
  br i1 %6, label %.backedge.backedge, label %Wlc_NtkCleanMarks.exit

21:                                               ; preds = %.critedge
  %22 = icmp sgt i32 %.val16, 1
  br i1 %22, label %.lr.ph.i, label %Wlc_NtkCleanMarks.exit

.lr.ph.i:                                         ; preds = %21, %.lr.ph.i
  %indvars.iv.i = phi i64 [ %indvars.iv.next.i, %.lr.ph.i ], [ 1, %21 ]
  %.val.i = load ptr, ptr %5, align 8
  %23 = getelementptr inbounds nuw %struct.Wlc_Obj_t_, ptr %.val.i, i64 %indvars.iv.i
  %24 = load i16, ptr %23, align 8
  %25 = and i16 %24, -129
  store i16 %25, ptr %23, align 8
  %indvars.iv.next.i = add nuw nsw i64 %indvars.iv.i, 1
  %.val5.i = load i32, ptr %4, align 8
  %26 = sext i32 %.val5.i to i64
  %27 = icmp slt i64 %indvars.iv.next.i, %26
  br i1 %27, label %.lr.ph.i, label %Wlc_NtkCleanMarks.exit, !llvm.loop !26

Wlc_NtkCleanMarks.exit:                           ; preds = %.critedge.thread, %.lr.ph.i, %21, %2
  ret void
}